; ModuleID = '32/486.c'
source_filename = "32/486.c"
target datalayout = "e-m:e-p270:32:32-p271:32:32-p272:64:64-i64:64-f80:128-n8:16:32:64-S128"
target triple = "x86_64-pc-linux-gnu"

@.str = private unnamed_addr constant [3 x i8] c"%d\00", align 1
@.str.1 = private unnamed_addr constant [5 x i8] c"%s%s\00", align 1
@.str.2 = private unnamed_addr constant [3 x i8] c"%c\00", align 1
@.str.3 = private unnamed_addr constant [2 x i8] c"\0A\00", align 1

; Function Attrs: noinline nounwind uwtable
define dso_local i32 @main() #0 {
  %1 = alloca i32, align 4
  %2 = alloca i32, align 4
  %3 = alloca i32, align 4
  %4 = alloca i32, align 4
  %5 = alloca i32, align 4
  %6 = alloca i32, align 4
  %7 = alloca i32, align 4
  %8 = alloca [100 x i8], align 16
  %9 = alloca [100 x i8], align 16
  %10 = alloca [100 x i8], align 16
  store i32 0, i32* %1, align 4
  %11 = call i32 (i8*, ...) @__isoc99_scanf(i8* getelementptr inbounds ([3 x i8], [3 x i8]* @.str, i64 0, i64 0), i32* %2)
  store i32 0, i32* %3, align 4
  br label %12

12:                                               ; preds = %145, %0
  %13 = load i32, i32* %3, align 4
  %14 = load i32, i32* %2, align 4
  %15 = icmp slt i32 %13, %14
  br i1 %15, label %16, label %148

16:                                               ; preds = %12
  %17 = getelementptr inbounds [100 x i8], [100 x i8]* %8, i64 0, i64 0
  %18 = getelementptr inbounds [100 x i8], [100 x i8]* %9, i64 0, i64 0
  %19 = call i32 (i8*, ...) @__isoc99_scanf(i8* getelementptr inbounds ([5 x i8], [5 x i8]* @.str.1, i64 0, i64 0), i8* %17, i8* %18)
  %20 = getelementptr inbounds [100 x i8], [100 x i8]* %8, i64 0, i64 0
  %21 = call i64 @strlen(i8* %20) #3
  %22 = trunc i64 %21 to i32
  store i32 %22, i32* %5, align 4
  %23 = getelementptr inbounds [100 x i8], [100 x i8]* %9, i64 0, i64 0
  %24 = call i64 @strlen(i8* %23) #3
  %25 = trunc i64 %24 to i32
  store i32 %25, i32* %6, align 4
  %26 = load i32, i32* %5, align 4
  %27 = sub nsw i32 %26, 1
  store i32 %27, i32* %4, align 4
  %28 = load i32, i32* %6, align 4
  %29 = sub nsw i32 %28, 1
  store i32 %29, i32* %7, align 4
  br label %30

30:                                               ; preds = %105, %16
  %31 = load i32, i32* %4, align 4
  %32 = load i32, i32* %5, align 4
  %33 = load i32, i32* %6, align 4
  %34 = sub nsw i32 %32, %33
  %35 = icmp sge i32 %31, %34
  %36 = zext i1 %35 to i32
  %37 = load i32, i32* %7, align 4
  %38 = icmp sge i32 %37, 0
  br i1 %38, label %39, label %110

39:                                               ; preds = %30
  %40 = load i32, i32* %4, align 4
  %41 = sext i32 %40 to i64
  %42 = getelementptr inbounds [100 x i8], [100 x i8]* %8, i64 0, i64 %41
  %43 = load i8, i8* %42, align 1
  %44 = sext i8 %43 to i32
  %45 = load i32, i32* %7, align 4
  %46 = sext i32 %45 to i64
  %47 = getelementptr inbounds [100 x i8], [100 x i8]* %9, i64 0, i64 %46
  %48 = load i8, i8* %47, align 1
  %49 = sext i8 %48 to i32
  %50 = icmp sge i32 %44, %49
  br i1 %50, label %51, label %68

51:                                               ; preds = %39
  %52 = load i32, i32* %4, align 4
  %53 = sext i32 %52 to i64
  %54 = getelementptr inbounds [100 x i8], [100 x i8]* %8, i64 0, i64 %53
  %55 = load i8, i8* %54, align 1
  %56 = sext i8 %55 to i32
  %57 = load i32, i32* %7, align 4
  %58 = sext i32 %57 to i64
  %59 = getelementptr inbounds [100 x i8], [100 x i8]* %9, i64 0, i64 %58
  %60 = load i8, i8* %59, align 1
  %61 = sext i8 %60 to i32
  %62 = sub nsw i32 %56, %61
  %63 = add nsw i32 %62, 48
  %64 = trunc i32 %63 to i8
  %65 = load i32, i32* %4, align 4
  %66 = sext i32 %65 to i64
  %67 = getelementptr inbounds [100 x i8], [100 x i8]* %10, i64 0, i64 %66
  store i8 %64, i8* %67, align 1
  br label %68

68:                                               ; preds = %51, %39
  %69 = load i32, i32* %4, align 4
  %70 = sext i32 %69 to i64
  %71 = getelementptr inbounds [100 x i8], [100 x i8]* %8, i64 0, i64 %70
  %72 = load i8, i8* %71, align 1
  %73 = sext i8 %72 to i32
  %74 = load i32, i32* %7, align 4
  %75 = sext i32 %74 to i64
  %76 = getelementptr inbounds [100 x i8], [100 x i8]* %9, i64 0, i64 %75
  %77 = load i8, i8* %76, align 1
  %78 = sext i8 %77 to i32
  %79 = icmp slt i32 %73, %78
  br i1 %79, label %80, label %104

80:                                               ; preds = %68
  %81 = load i32, i32* %4, align 4
  %82 = sext i32 %81 to i64
  %83 = getelementptr inbounds [100 x i8], [100 x i8]* %8, i64 0, i64 %82
  %84 = load i8, i8* %83, align 1
  %85 = sext i8 %84 to i32
  %86 = add nsw i32 10, %85
  %87 = load i32, i32* %7, align 4
  %88 = sext i32 %87 to i64
  %89 = getelementptr inbounds [100 x i8], [100 x i8]* %9, i64 0, i64 %88
  %90 = load i8, i8* %89, align 1
  %91 = sext i8 %90 to i32
  %92 = sub nsw i32 %86, %91
  %93 = add nsw i32 %92, 48
  %94 = trunc i32 %93 to i8
  %95 = load i32, i32* %4, align 4
  %96 = sext i32 %95 to i64
  %97 = getelementptr inbounds [100 x i8], [100 x i8]* %10, i64 0, i64 %96
  store i8 %94, i8* %97, align 1
  %98 = load i32, i32* %4, align 4
  %99 = sub nsw i32 %98, 1
  %100 = sext i32 %99 to i64
  %101 = getelementptr inbounds [100 x i8], [100 x i8]* %8, i64 0, i64 %100
  %102 = load i8, i8* %101, align 1
  %103 = add i8 %102, -1
  store i8 %103, i8* %101, align 1
  br label %104

104:                                              ; preds = %80, %68
  br label %105

105:                                              ; preds = %104
  %106 = load i32, i32* %4, align 4
  %107 = add nsw i32 %106, -1
  store i32 %107, i32* %4, align 4
  %108 = load i32, i32* %7, align 4
  %109 = add nsw i32 %108, -1
  store i32 %109, i32* %7, align 4
  br label %30

110:                                              ; preds = %30
  store i32 0, i32* %4, align 4
  br label %111

111:                                              ; preds = %125, %110
  %112 = load i32, i32* %4, align 4
  %113 = load i32, i32* %5, align 4
  %114 = load i32, i32* %6, align 4
  %115 = sub nsw i32 %113, %114
  %116 = icmp slt i32 %112, %115
  br i1 %116, label %117, label %128

117:                                              ; preds = %111
  %118 = load i32, i32* %4, align 4
  %119 = sext i32 %118 to i64
  %120 = getelementptr inbounds [100 x i8], [100 x i8]* %8, i64 0, i64 %119
  %121 = load i8, i8* %120, align 1
  %122 = load i32, i32* %4, align 4
  %123 = sext i32 %122 to i64
  %124 = getelementptr inbounds [100 x i8], [100 x i8]* %10, i64 0, i64 %123
  store i8 %121, i8* %124, align 1
  br label %125

125:                                              ; preds = %117
  %126 = load i32, i32* %4, align 4
  %127 = add nsw i32 %126, 1
  store i32 %127, i32* %4, align 4
  br label %111

128:                                              ; preds = %111
  store i32 0, i32* %4, align 4
  br label %129

129:                                              ; preds = %140, %128
  %130 = load i32, i32* %4, align 4
  %131 = load i32, i32* %5, align 4
  %132 = icmp slt i32 %130, %131
  br i1 %132, label %133, label %143

133:                                              ; preds = %129
  %134 = load i32, i32* %4, align 4
  %135 = sext i32 %134 to i64
  %136 = getelementptr inbounds [100 x i8], [100 x i8]* %10, i64 0, i64 %135
  %137 = load i8, i8* %136, align 1
  %138 = sext i8 %137 to i32
  %139 = call i32 (i8*, ...) @printf(i8* getelementptr inbounds ([3 x i8], [3 x i8]* @.str.2, i64 0, i64 0), i32 %138)
  br label %140

140:                                              ; preds = %133
  %141 = load i32, i32* %4, align 4
  %142 = add nsw i32 %141, 1
  store i32 %142, i32* %4, align 4
  br label %129

143:                                              ; preds = %129
  %144 = call i32 (i8*, ...) @printf(i8* getelementptr inbounds ([2 x i8], [2 x i8]* @.str.3, i64 0, i64 0))
  br label %145

145:                                              ; preds = %143
  %146 = load i32, i32* %3, align 4
  %147 = add nsw i32 %146, 1
  store i32 %147, i32* %3, align 4
  br label %12

148:                                              ; preds = %12
  ret i32 0
}

declare dso_local i32 @__isoc99_scanf(i8*, ...) #1

; Function Attrs: nounwind readonly
declare dso_local i64 @strlen(i8*) #2

declare dso_local i32 @printf(i8*, ...) #1


!llvm.module.flags = !{!0}
!llvm.ident = !{!1}

!0 = !{i32 1, !"wchar_size", i32 4}
!1 = !{!"clang version 10.0.0-4ubuntu1 "}
